target datalayout = "e-m:e-p270:32:32-p271:32:32-p272:64:64-i64:64-i128:128-f80:128-n8:16:32:64-S128"
target triple = "x86_64-pc-linux-gnu"

%struct.sockaddr_storage = type { i16, [118 x i8], i64 }
%struct.AVFormatContext = type { ptr, ptr, ptr, ptr, ptr, i32, i32, ptr, i32, ptr, i32, ptr, ptr, i64, i64, i64, i32, i32, i32, i64, i64, ptr, i32, i32, ptr, i32, i32, i32, i32, ptr, i64, i32, i32, %struct.AVIOInterruptCB, i32, i32, i32, i32, i64, i32, i32, i32, i32, i32, i32, i32, i32, i32, i32, i32, i32, i64, i32, i32, i32, i32, i32, ptr, ptr, ptr, ptr, i32, ptr, ptr, ptr, ptr, i32, ptr, ptr, i64, ptr, ptr, ptr, i64 }
%struct.AVIOInterruptCB = type { ptr, ptr }
%struct.RTSPState = type { ptr, ptr, i32, ptr, i32, i64, i32, [512 x i8], i32, i64, i32, i32, i32, [64 x i8], [128 x i8], %struct.HTTPAuthState, [2048 x i8], ptr, i32, ptr, ptr, [1024 x i8], ptr, i64, [4096 x i8], ptr, i32, i32, ptr, i32, i32, ptr, i32, i64, ptr, i32, i32, i32, i32, i32, i32, i32, i32, i32, i32, i64, i32, ptr, [4 x i8], i32, i32, ptr }
%struct.HTTPAuthState = type { i32, [200 x i8], %struct.DigestParams, i32 }
%struct.DigestParams = type { [300 x i8], [10 x i8], [30 x i8], [300 x i8], [10 x i8], i32 }
%struct.RTSPMessageHeader = type { i32, i32, i32, i64, i64, [8 x %struct.RTSPTransportField], i32, [512 x i8], [4096 x i8], [64 x i8], [64 x i8], i32, i32, [256 x i8], [64 x i8], [64 x i8] }
%struct.RTSPTransportField = type { i32, i32, i32, i32, i32, i32, i32, i32, i32, i32, %struct.sockaddr_storage, [47 x i8], i32, i32 }

@.str.102 = private unnamed_addr constant [24 x i8] c"method %s failed: %d%s\0A\00", align 1
@.str.103 = private unnamed_addr constant [4 x i8] c"%s\0A\00", align 1

; Function Attrs: nounwind uwtable
define i32 @ff_rtsp_send_cmd_with_content(ptr noundef %0, ptr noundef %1, ptr noundef %2, ptr noundef %3, ptr noundef %4, ptr noundef %5, ptr noundef %6, i32 noundef %7) #0 {
  %9 = alloca i32, align 4
  %10 = alloca ptr, align 8
  %11 = alloca ptr, align 8
  %12 = alloca ptr, align 8
  %13 = alloca ptr, align 8
  %14 = alloca ptr, align 8
  %15 = alloca ptr, align 8
  %16 = alloca ptr, align 8
  %17 = alloca i32, align 4
  %18 = alloca ptr, align 8
  %19 = alloca i32, align 4
  %20 = alloca i32, align 4
  %21 = alloca i32, align 4
  %22 = alloca i32, align 4
  store ptr %0, ptr %10, align 8, !tbaa !15
  store ptr %1, ptr %11, align 8, !tbaa !10
  store ptr %2, ptr %12, align 8, !tbaa !10
  store ptr %3, ptr %13, align 8, !tbaa !10
  store ptr %4, ptr %14, align 8, !tbaa !142
  store ptr %5, ptr %15, align 8, !tbaa !4
  store ptr %6, ptr %16, align 8, !tbaa !10
  store i32 %7, ptr %17, align 4, !tbaa !12
  call void @llvm.lifetime.start.p0(i64 8, ptr %18) #13
  %23 = load ptr, ptr %10, align 8, !tbaa !15
  %24 = getelementptr inbounds nuw %struct.AVFormatContext, ptr %23, i32 0, i32 3
  %25 = load ptr, ptr %24, align 8, !tbaa !33
  store ptr %25, ptr %18, align 8, !tbaa !46
  call void @llvm.lifetime.start.p0(i64 4, ptr %19) #13
  call void @llvm.lifetime.start.p0(i64 4, ptr %20) #13
  call void @llvm.lifetime.start.p0(i64 4, ptr %21) #13
  store i32 0, ptr %21, align 4, !tbaa !12
  br label %26

26:                                               ; preds = %75, %8
  %27 = load ptr, ptr %18, align 8, !tbaa !46
  %28 = getelementptr inbounds nuw %struct.RTSPState, ptr %27, i32 0, i32 15
  %29 = getelementptr inbounds nuw %struct.HTTPAuthState, ptr %28, i32 0, i32 0
  %30 = load i32, ptr %29, align 4, !tbaa !173
  store i32 %30, ptr %19, align 4, !tbaa !12
  %31 = load ptr, ptr %10, align 8, !tbaa !15
  %32 = load ptr, ptr %11, align 8, !tbaa !10
  %33 = load ptr, ptr %12, align 8, !tbaa !10
  %34 = load ptr, ptr %13, align 8, !tbaa !10
  %35 = load ptr, ptr %16, align 8, !tbaa !10
  %36 = load i32, ptr %17, align 4, !tbaa !12
  %37 = call i32 @rtsp_send_cmd_with_content_async(ptr noundef %31, ptr noundef %32, ptr noundef %33, ptr noundef %34, ptr noundef %35, i32 noundef %36)
  store i32 %37, ptr %20, align 4, !tbaa !12
  %38 = icmp slt i32 %37, 0
  br i1 %38, label %39, label %41

39:                                               ; preds = %26
  %40 = load i32, ptr %20, align 4, !tbaa !12
  store i32 %40, ptr %9, align 4
  store i32 1, ptr %22, align 4
  br label %95

41:                                               ; preds = %26
  %42 = load ptr, ptr %10, align 8, !tbaa !15
  %43 = load ptr, ptr %14, align 8, !tbaa !142
  %44 = load ptr, ptr %15, align 8, !tbaa !4
  %45 = load ptr, ptr %11, align 8, !tbaa !10
  %46 = call i32 @ff_rtsp_read_reply(ptr noundef %42, ptr noundef %43, ptr noundef %44, i32 noundef 0, ptr noundef %45)
  store i32 %46, ptr %20, align 4, !tbaa !12
  %47 = icmp slt i32 %46, 0
  br i1 %47, label %48, label %50

48:                                               ; preds = %41
  %49 = load i32, ptr %20, align 4, !tbaa !12
  store i32 %49, ptr %9, align 4
  store i32 1, ptr %22, align 4
  br label %95

50:                                               ; preds = %41
  %51 = load i32, ptr %21, align 4, !tbaa !12
  %52 = add nsw i32 %51, 1
  store i32 %52, ptr %21, align 4, !tbaa !12
  %53 = load ptr, ptr %14, align 8, !tbaa !142
  %54 = getelementptr inbounds nuw %struct.RTSPMessageHeader, ptr %53, i32 0, i32 1
  %55 = load i32, ptr %54, align 4, !tbaa !165
  %56 = icmp eq i32 %55, 401
  br i1 %56, label %57, label %76

57:                                               ; preds = %50
  %58 = load i32, ptr %19, align 4, !tbaa !12
  %59 = icmp eq i32 %58, 0
  br i1 %59, label %66, label %60

60:                                               ; preds = %57
  %61 = load ptr, ptr %18, align 8, !tbaa !46
  %62 = getelementptr inbounds nuw %struct.RTSPState, ptr %61, i32 0, i32 15
  %63 = getelementptr inbounds nuw %struct.HTTPAuthState, ptr %62, i32 0, i32 3
  %64 = load i32, ptr %63, align 4, !tbaa !174
  %65 = icmp ne i32 %64, 0
  br i1 %65, label %66, label %76

66:                                               ; preds = %60, %57
  %67 = load ptr, ptr %18, align 8, !tbaa !46
  %68 = getelementptr inbounds nuw %struct.RTSPState, ptr %67, i32 0, i32 15
  %69 = getelementptr inbounds nuw %struct.HTTPAuthState, ptr %68, i32 0, i32 0
  %70 = load i32, ptr %69, align 4, !tbaa !173
  %71 = icmp ne i32 %70, 0
  br i1 %71, label %72, label %76

72:                                               ; preds = %66
  %73 = load i32, ptr %21, align 4, !tbaa !12
  %74 = icmp slt i32 %73, 2
  br i1 %74, label %75, label %76

75:                                               ; preds = %72
  br label %26

76:                                               ; preds = %72, %66, %60, %50
  %77 = load ptr, ptr %14, align 8, !tbaa !142
  %78 = getelementptr inbounds nuw %struct.RTSPMessageHeader, ptr %77, i32 0, i32 1
  %79 = load i32, ptr %78, align 4, !tbaa !165
  %80 = icmp ugt i32 %79, 400
  br i1 %80, label %81, label %94

81:                                               ; preds = %76
  %82 = load ptr, ptr %10, align 8, !tbaa !15
  %83 = load ptr, ptr %11, align 8, !tbaa !10
  %84 = load ptr, ptr %14, align 8, !tbaa !142
  %85 = getelementptr inbounds nuw %struct.RTSPMessageHeader, ptr %84, i32 0, i32 1
  %86 = load i32, ptr %85, align 4, !tbaa !165
  %87 = load ptr, ptr %14, align 8, !tbaa !142
  %88 = getelementptr inbounds nuw %struct.RTSPMessageHeader, ptr %87, i32 0, i32 13
  %89 = getelementptr inbounds [256 x i8], ptr %88, i64 0, i64 0
  call void (ptr, i32, ptr, ...) @av_log(ptr noundef %82, i32 noundef 16, ptr noundef @.str.102, ptr noundef %83, i32 noundef %86, ptr noundef %89)
  %90 = load ptr, ptr %10, align 8, !tbaa !15
  %91 = load ptr, ptr %18, align 8, !tbaa !46
  %92 = getelementptr inbounds nuw %struct.RTSPState, ptr %91, i32 0, i32 16
  %93 = getelementptr inbounds [2048 x i8], ptr %92, i64 0, i64 0
  call void (ptr, i32, ptr, ...) @av_log(ptr noundef %90, i32 noundef 48, ptr noundef @.str.103, ptr noundef %93)
  br label %94

94:                                               ; preds = %81, %76
  store i32 0, ptr %9, align 4
  store i32 1, ptr %22, align 4
  br label %95

95:                                               ; preds = %94, %48, %39
  call void @llvm.lifetime.end.p0(i64 4, ptr %21) #13
  call void @llvm.lifetime.end.p0(i64 4, ptr %20) #13
  call void @llvm.lifetime.end.p0(i64 4, ptr %19) #13
  call void @llvm.lifetime.end.p0(i64 8, ptr %18) #13
  %96 = load i32, ptr %9, align 4
  ret i32 %96
}