; Function Attrs: nounwind uwtable
define range(i32 -2147483648, 1) i32 @ff_rtsp_send_cmd_with_content(ptr noundef %0, ptr noundef %1, ptr noundef %2, ptr noundef %3, ptr noundef %4, ptr noundef %5, ptr noundef %6, i32 noundef %7) local_unnamed_addr #2 {
  %9 = getelementptr inbounds nuw i8, ptr %0, i64 24
  %10 = load ptr, ptr %9, align 8, !tbaa !20
  %11 = getelementptr inbounds nuw i8, ptr %10, i64 780
  %12 = getelementptr inbounds nuw i8, ptr %4, i64 4
  %13 = getelementptr inbounds nuw i8, ptr %10, i64 1640
  %.pre = load i32, ptr %11, align 4, !tbaa !185
  %14 = icmp eq i32 %.pre, 0
  br label %15

15:                                               ; preds = %29, %8
  %16 = phi i1 [ %14, %8 ], [ false, %29 ]
  %17 = phi i1 [ true, %8 ], [ false, %29 ]
  %18 = tail call fastcc i32 @rtsp_send_cmd_with_content_async(ptr noundef %0, ptr noundef %1, ptr noundef %2, ptr noundef %3, ptr noundef %6, i32 noundef %7)
  %19 = icmp slt i32 %18, 0
  br i1 %19, label %.loopexit, label %20

20:                                               ; preds = %15
  %21 = tail call i32 @ff_rtsp_read_reply(ptr noundef %0, ptr noundef %4, ptr noundef %5, i32 noundef 0, ptr noundef %1)
  %22 = icmp slt i32 %21, 0
  br i1 %22, label %.loopexit, label %23

23:                                               ; preds = %20
  %24 = load i32, ptr %12, align 4, !tbaa !178
  %25 = icmp eq i32 %24, 401
  br i1 %25, label %26, label %32

26:                                               ; preds = %23
  br i1 %16, label %29, label %27

27:                                               ; preds = %26
  %28 = load i32, ptr %13, align 4, !tbaa !186
  %.not = icmp eq i32 %28, 0
  br i1 %.not, label %.thread, label %29

29:                                               ; preds = %27, %26
  %30 = load i32, ptr %11, align 4, !tbaa !185
  %31 = icmp ne i32 %30, 0
  %or.cond = and i1 %17, %31
  br i1 %or.cond, label %15, label %.thread

32:                                               ; preds = %23
  %33 = icmp ugt i32 %24, 400
  br i1 %33, label %.thread, label %.loopexit

.thread:                                          ; preds = %27, %29, %32
  %34 = getelementptr inbounds nuw i8, ptr %4, i64 6572
  tail call void (ptr, i32, ptr, ...) @av_log(ptr noundef %0, i32 noundef 16, ptr noundef nonnull @.str.102, ptr noundef %1, i32 noundef %24, ptr noundef nonnull %34) #15
  %35 = getelementptr inbounds nuw i8, ptr %10, i64 1644
  tail call void (ptr, i32, ptr, ...) @av_log(ptr noundef %0, i32 noundef 48, ptr noundef nonnull @.str.103, ptr noundef nonnull %35) #15
  br label %.loopexit

.loopexit:                                        ; preds = %20, %15, %32, %.thread
  %.028 = phi i32 [ 0, %.thread ], [ 0, %32 ], [ %21, %20 ], [ %18, %15 ]
  ret i32 %.028
}